; Function Attrs: mustprogress uwtable
define internal noundef double @"_ZNSt17_Function_handlerIFddEZNK8QuantLib23AnalyticPDFHestonEngine9calculateEvE3$_0E9_M_invokeERKSt9_Any_dataOd"(ptr nocapture noundef nonnull readonly align 8 dereferenceable(16) %__functor, ptr nocapture noundef nonnull readonly align 8 dereferenceable(8) %__args) #7 align 2 {
entry:
  %call.val = load ptr, ptr %__functor, align 8, !tbaa !162
  %0 = getelementptr inbounds i8, ptr %__functor, i64 8
  %call.val1 = load ptr, ptr %0, align 8, !tbaa !164
  %__args.val = load double, ptr %__args, align 8, !tbaa !93
  %call.val1.val = load double, ptr %call.val1, align 8, !tbaa !93
  %call.i.i.i = tail call noundef double @_ZNK8QuantLib23AnalyticPDFHestonEngine14weightedPayoffEdd(ptr noundef nonnull readonly align 8 dereferenceable(384) %call.val, double noundef %__args.val, double noundef %call.val1.val)
  ret double %call.i.i.i
}